; Function Attrs: mustprogress uwtable
define void @_ZN4LIEF5MachO14FilesetCommandC2ERKNS0_7details21fileset_entry_commandE(ptr noundef nonnull align 8 dereferenceable(112) %0, ptr nocapture noundef nonnull readonly align 8 dereferenceable(32) %1) unnamed_addr #0 align 2 {
  %3 = getelementptr inbounds i8, ptr %1, i64 4
  %4 = load i32, ptr %3, align 4
  tail call void @_ZN4LIEF5MachO11LoadCommandC2ENS0_18LOAD_COMMAND_TYPESEj(ptr noundef nonnull align 8 dereferenceable(56) %0, i64 noundef 2147483701, i32 noundef %4)
  store ptr getelementptr inbounds ({ [9 x ptr] }, ptr @_ZTVN4LIEF5MachO14FilesetCommandE, i64 0, i32 0, i64 2), ptr %0, align 8
  %5 = getelementptr inbounds i8, ptr %0, i64 56
  tail call void @_ZNSt7__cxx1112basic_stringIcSt11char_traitsIcESaIcEEC1Ev(ptr noundef nonnull align 8 dereferenceable(32) %5) #10
  %6 = getelementptr inbounds i8, ptr %0, i64 88
  %7 = getelementptr inbounds i8, ptr %1, i64 8
  %8 = load i64, ptr %7, align 8
  store i64 %8, ptr %6, align 8
  %9 = getelementptr inbounds i8, ptr %0, i64 96
  %10 = getelementptr inbounds i8, ptr %1, i64 16
  %11 = load i64, ptr %10, align 8
  store i64 %11, ptr %9, align 8
  %12 = getelementptr inbounds i8, ptr %0, i64 104
  store ptr null, ptr %12, align 8
  ret void
}